; Function Attrs: mustprogress uwtable
define hidden void @_ZN6google8protobuf8internal14WireFormatLite15WriteFloatArrayEPKfiPNS0_2io17CodedOutputStreamE(ptr noundef %0, i32 noundef %1, ptr noundef %2) local_unnamed_addr #3 align 2 {
  %4 = shl i32 %1, 2
  %5 = getelementptr inbounds nuw i8, ptr %2, i64 64
  %6 = load ptr, ptr %5, align 8, !tbaa !20
  %7 = load ptr, ptr %2, align 8, !tbaa !25
  %8 = ptrtoint ptr %7 to i64
  %9 = ptrtoint ptr %6 to i64
  %10 = sub i64 %8, %9
  %11 = sext i32 %4 to i64
  %12 = icmp slt i64 %10, %11
  br i1 %12, label %13, label %15, !prof !35

13:                                               ; preds = %3
  %14 = tail call noundef ptr @_ZN6google8protobuf2io19EpsCopyOutputStream16WriteRawFallbackEPKviPh(ptr noundef nonnull align 8 dereferenceable(80) %2, ptr noundef %0, i32 noundef %4, ptr noundef %6)
  br label %_ZN6google8protobuf8internalL10WriteArrayIfEEvPKT_iPNS0_2io17CodedOutputStreamE.exit

15:                                               ; preds = %3
  tail call void @llvm.memcpy.p0.p0.i64(ptr align 1 %6, ptr align 1 %0, i64 %11, i1 false)
  %16 = getelementptr inbounds i8, ptr %6, i64 %11
  br label %_ZN6google8protobuf8internalL10WriteArrayIfEEvPKT_iPNS0_2io17CodedOutputStreamE.exit

_ZN6google8protobuf8internalL10WriteArrayIfEEvPKT_iPNS0_2io17CodedOutputStreamE.exit: ; preds = %13, %15
  %.0.i.i.i = phi ptr [ %14, %13 ], [ %16, %15 ]
  store ptr %.0.i.i.i, ptr %5, align 8, !tbaa !20
  ret void
}